; Function Attrs: nounwind uwtable
define i32 @Gia_ManBuild1Hot(ptr noundef %0, ptr noundef readonly captures(none) %1) local_unnamed_addr #0 {
  %3 = alloca i32, align 4
  %4 = alloca i32, align 4
  %5 = getelementptr i8, ptr %1, i64 8
  %.val3 = load ptr, ptr %5, align 8
  %6 = getelementptr i8, ptr %1, i64 4
  %.val = load i32, ptr %6, align 4
  call void @Gia_ManBuild1Hot_rec(ptr noundef %0, ptr noundef %.val3, i32 noundef %.val, ptr noundef nonnull %3, ptr noundef nonnull %4)
  %7 = load i32, ptr %4, align 4
  ret i32 %7
}